Certificate:
    Data:
        Version: 3 (0x2)
        Serial Number: 5 (0x5)
        Signature Algorithm: sha512WithRSAEncryption
        Issuer: C=IN, ST=MAHARASTRA, L=PUNE, O=AVAYA INDIA PVT LTD, OU=RND, CN=PROACTIVE CONTACT CA
        Validity
            Not Before: Oct  7 16:20:15 2013 GMT
            Not After : Oct  5 16:20:15 2023 GMT
        Subject: C=IN, ST=MAHARASTRA, L=PUNE, O=AVAYA INDIA PVT LTD, OU=RND, CN=AGENT CLIENT KEY
        Subject Public Key Info:
            Public Key Algorithm: rsaEncryption
            RSA Public Key: (2048 bit)
                Modulus (2048 bit):
                    00:c3:ad:8d:b1:b4:2c:7a:83:ca:12:15:b4:ee:98:
                    a3:c9:43:24:b8:5c:7f:c9:dc:01:da:d5:1e:b4:69:
                    dd:01:94:5f:70:5e:f9:2e:b1:5e:34:83:1f:0a:c5:
                    c2:00:18:6a:a7:02:ea:d7:cb:ed:f7:1c:5d:26:e6:
                    c9:35:dd:a4:75:c9:17:7e:84:05:8d:41:f5:64:a3:
                    1e:ef:88:c1:43:8d:1e:07:f7:90:dc:b0:b5:9b:e7:
                    cf:0d:be:25:b1:e2:64:c3:bf:1b:8c:74:f1:b5:b9:
                    3a:8e:ff:6f:81:b9:1c:1f:71:96:2d:e0:56:37:8c:
                    27:ba:2d:74:fe:77:a8:9a:85:32:e9:15:21:17:4d:
                    22:c7:3d:b6:c9:12:36:58:db:ef:7f:cc:c2:14:bf:
                    04:5e:49:61:40:e2:23:96:23:1d:6a:cc:53:4e:db:
                    b6:20:0f:9b:c0:01:79:d1:a0:30:fd:ef:b2:bb:f7:
                    83:e0:e9:d1:19:3a:92:1b:b6:23:3d:40:7c:14:a7:
                    a2:ed:8e:94:aa:51:fb:4f:41:fc:d5:a5:74:00:3d:
                    f8:1e:c7:1d:17:73:df:58:bb:08:4b:c7:c8:b9:b7:
                    f0:8c:2a:8e:ae:0f:0d:ef:a3:5f:a0:b2:59:1e:c9:
                    07:06:4a:1e:de:98:84:e8:56:cd:e2:f8:16:29:0e:
                    7e:a9
                Exponent: 65537 (0x10001)
        X509v3 extensions:
            X509v3 Basic Constraints: 
                CA:FALSE
            Netscape Comment: 
                OpenSSL Generated Certificate
            X509v3 Subject Key Identifier: 
                38:61:F5:51:AF:EA:32:13:A7:68:55:F7:02:18:CA:77:28:0E:35:15
            X509v3 Authority Key Identifier: 
                keyid:29:63:E6:4C:AE:FB:5F:C4:B3:98:16:E0:C3:5A:E1:39:2A:16:64:62

    Signature Algorithm: sha512WithRSAEncryption
        a0:33:0a:29:d5:0e:b5:09:22:35:cf:4f:63:ac:a4:a4:67:6e:
        b4:d3:09:d2:e9:1c:90:a6:7f:2d:72:db:e4:3e:0f:1f:4e:d5:
        bf:eb:39:a6:cb:7d:4e:20:88:4c:57:77:7b:f2:51:40:50:dc:
        78:f1:fe:bd:d0:c0:80:eb:33:e0:9a:c5:31:74:13:50:72:ed:
        7a:15:a7:08:60:0a:cd:c7:b9:c4:46:2f:ab:38:38:1a:a8:6e:
        c1:b1:d5:5c:4b:c8:92:23:ec:21:be:09:4a:cf:25:2a:0e:2e:
        66:73:7e:ba:bd:0e:01:1f:3f:ea:32:eb:82:1e:83:3a:1f:d5:
        2b:be:64:52:fe:1a:64:8c:33:05:af:a2:7a:6d:73:56:be:00:
        42:4a:3a:5e:74:7d:3a:27:19:88:06:39:2b:a9:d3:c7:19:00:
        c2:3f:29:32:1f:9d:2e:63:2c:56:14:92:f8:20:23:0f:a9:2a:
        30:6a:2b:0d:eb:81:b0:99:f0:35:25:65:31:fd:dd:85:d0:72:
        9a:44:62:f9:35:36:11:0d:a5:7e:4f:37:cb:07:5a:53:c9:ca:
        b6:e1:82:51:97:39:2a:75:3f:22:c3:76:5b:53:7b:17:d7:b4:
        a2:15:fc:64:f6:4c:a0:b9:7b:6f:35:39:ba:8a:8c:b5:f0:e2:
        d4:0b:3e:bd
-----BEGIN CERTIFICATE-----
MIID6jCCAtKgAwIBAgIBBTANBgkqhkiG9w0BAQ0FADB8MQswCQYDVQQGEwJJTjET
MBEGA1UECBMKTUFIQVJBU1RSQTENMAsGA1UEBxMEUFVORTEcMBoGA1UEChMTQVZB
WUEgSU5ESUEgUFZUIExURDEMMAoGA1UECxMDUk5EMR0wGwYDVQQDExRQUk9BQ1RJ
VkUgQ09OVEFDVCBDQTAeFw0xMzEwMDcxNjIwMTVaFw0yMzEwMDUxNjIwMTVaMHgx
CzAJBgNVBAYTAklOMRMwEQYDVQQIEwpNQUhBUkFTVFJBMQ0wCwYDVQQHEwRQVU5F
MRwwGgYDVQQKExNBVkFZQSBJTkRJQSBQVlQgTFREMQwwCgYDVQQLEwNSTkQxGTAX
BgNVBAMTEEFHRU5UIENMSUVOVCBLRVkwggEiMA0GCSqGSIb3DQEBAQUAA4IBDwAw
ggEKAoIBAQDDrY2xtCx6g8oSFbTumKPJQyS4XH/J3AHa1R60ad0BlF9wXvkusV40
gx8KxcIAGGqnAurXy+33HF0m5sk13aR1yRd+hAWNQfVkox7viMFDjR4H95DcsLWb
588NviWx4mTDvxuMdPG1uTqO/2+BuRwfcZYt4FY3jCe6LXT+d6iahTLpFSEXTSLH
PbbJEjZY2+9/zMIUvwReSWFA4iOWIx1qzFNO27YgD5vAAXnRoDD977K794Pg6dEZ
OpIbtiM9QHwUp6LtjpSqUftPQfzVpXQAPfgexx0Xc99YuwhLx8i5t/CMKo6uDw3v
o1+gslkeyQcGSh7emIToVs3i+BYpDn6pAgMBAAGjezB5MAkGA1UdEwQCMAAwLAYJ
YIZIAYb4QgENBB8WHU9wZW5TU0wgR2VuZXJhdGVkIENlcnRpZmljYXRlMB0GA1Ud
DgQWBBQ4YfVRr+oyE6doVfcCGMp3KA41FTAfBgNVHSMEGDAWgBQpY+ZMrvtfxLOY
FuDDWuE5KhZkYjANBgkqhkiG9w0BAQ0FAAOCAQEAoDMKKdUOtQkiNc9PY6ykpGdu
tNMJ0ukckKZ/LXLb5D4PH07Vv+s5pst9TiCITFd3e/JRQFDcePH+vdDAgOsz4JrF
MXQTUHLtehWnCGAKzce5xEYvqzg4GqhuwbHVXEvIkiPsIb4JSs8lKg4uZnN+ur0O
AR8/6jLrgh6DOh/VK75kUv4aZIwzBa+iem1zVr4AQko6XnR9OicZiAY5K6nTxxkA
wj8pMh+dLmMsVhSS+CAjD6kqMGorDeuBsJnwNSVlMf3dhdBymkRi+TU2EQ2lfk83
ywdaU8nKtuGCUZc5KnU/IsN2W1N7F9e0ohX8ZPZMoLl7bzU5uoqMtfDi1As+vQ==
-----END CERTIFICATE-----
